; Function Attrs: mustprogress nounwind uwtable
define void @_ZN19OpenColorIO_v2_4dev4LookD2Ev(ptr nocapture noundef nonnull align 8 dereferenceable(8) %this) unnamed_addr #3 align 2 {
entry:
  %0 = load ptr, ptr %this, align 8
  %isnull = icmp eq ptr %0, null
  br i1 %isnull, label %delete.end, label %delete.notnull

delete.notnull:                                   ; preds = %entry
  tail call void @_ZN19OpenColorIO_v2_4dev4Look4ImplD2Ev(ptr noundef nonnull align 8 dereferenceable(128) %0) #12
  tail call void @_ZdlPv(ptr noundef nonnull %0) #13
  br label %delete.end

delete.end:                                       ; preds = %delete.notnull, %entry
  store ptr null, ptr %this, align 8
  ret void
}